; Function Attrs: mustprogress nofree norecurse nosync nounwind willreturn memory(argmem: read) uwtable
define hidden noundef i32 @_ZNK19OpenColorIO_v2_4dev18FormatMetadataImpl22getNumChildrenElementsEv(ptr nocapture noundef nonnull readonly align 8 dereferenceable(120) %this) unnamed_addr #10 align 2 {
entry:
  %m_elements = getelementptr inbounds i8, ptr %this, i64 96
  %_M_finish.i = getelementptr inbounds i8, ptr %this, i64 104
  %0 = load ptr, ptr %_M_finish.i, align 8
  %1 = load ptr, ptr %m_elements, align 8
  %sub.ptr.lhs.cast.i = ptrtoint ptr %0 to i64
  %sub.ptr.rhs.cast.i = ptrtoint ptr %1 to i64
  %sub.ptr.sub.i = sub i64 %sub.ptr.lhs.cast.i, %sub.ptr.rhs.cast.i
  %sub.ptr.div.i = sdiv exact i64 %sub.ptr.sub.i, 120
  %conv = trunc i64 %sub.ptr.div.i to i32
  ret i32 %conv
}